target datalayout = "e-m:e-p270:32:32-p271:32:32-p272:64:64-i64:64-i128:128-f80:128-n8:16:32:64-S128"
target triple = "x86_64-pc-linux-gnu"

%struct.Param = type { %struct.Expr, i32, i32, i32, i32, i32, i32 }
%struct.Expr = type { i32 }
%struct.PlannerInfo = type { i32, ptr, ptr, i32, ptr, ptr, ptr, ptr, i32, ptr, ptr, ptr, ptr, ptr, ptr, ptr, ptr, i32, ptr, ptr, ptr, ptr, ptr, i8, ptr, ptr, ptr, ptr, ptr, i32, ptr, ptr, ptr, ptr, ptr, ptr, ptr, i32, ptr, ptr, ptr, i32, ptr, ptr, ptr, ptr, ptr, ptr, [8 x ptr], [8 x ptr], ptr, ptr, ptr, ptr, ptr, ptr, ptr, double, double, double, i32, i8, i8, i8, i8, i8, i8, i8, i32, ptr, ptr, i32, i8, i8, i32, ptr, ptr, ptr, ptr, ptr, ptr, i8, ptr }
%struct.List = type { i32, i32, i32, ptr, [0 x %union.ListCell] }
%union.ListCell = type { ptr }
%struct.PlannerParamItem = type { i32, ptr, i32 }
%struct.Node = type { i32 }
%struct.PlannerGlobal = type { i32, ptr, ptr, ptr, ptr, ptr, ptr, ptr, ptr, ptr, ptr, ptr, ptr, ptr, ptr, ptr, ptr, i32, i32, i32, i8, i8, i8, i8, i8, ptr }
%struct.GroupingFunc = type { %struct.Expr, ptr, ptr, ptr, i32, i32 }

; Function Attrs: inlinehint nounwind uwtable
define internal i32 @list_length(ptr noundef %0) #2 {
  %2 = alloca ptr, align 8
  store ptr %0, ptr %2, align 8
  %3 = load ptr, ptr %2, align 8
  %4 = icmp ne ptr %3, null
  br i1 %4, label %5, label %9

5:                                                ; preds = %1
  %6 = load ptr, ptr %2, align 8
  %7 = getelementptr inbounds nuw %struct.List, ptr %6, i32 0, i32 1
  %8 = load i32, ptr %7, align 4
  br label %10

9:                                                ; preds = %1
  br label %10

10:                                               ; preds = %9, %5
  %11 = phi i32 [ %8, %5 ], [ 0, %9 ]
  ret i32 %11
}

; Function Attrs: inlinehint nounwind uwtable
define internal ptr @newNode(i64 noundef %0, i32 noundef %1) #2 {
  %3 = alloca i64, align 8
  %4 = alloca i32, align 4
  %5 = alloca ptr, align 8
  store i64 %0, ptr %3, align 8
  store i32 %1, ptr %4, align 4
  call void @llvm.lifetime.start.p0(i64 8, ptr %5) #6
  %6 = load i64, ptr %3, align 8
  %7 = call ptr @palloc0(i64 noundef %6)
  store ptr %7, ptr %5, align 8
  %8 = load i32, ptr %4, align 4
  %9 = load ptr, ptr %5, align 8
  %10 = getelementptr inbounds nuw %struct.Node, ptr %9, i32 0, i32 0
  store i32 %8, ptr %10, align 4
  %11 = load ptr, ptr %5, align 8
  call void @llvm.lifetime.end.p0(i64 8, ptr %5) #6
  ret ptr %11
}

; Function Attrs: nounwind uwtable
define dso_local ptr @replace_outer_grouping(ptr noundef %0, ptr noundef %1) #0 {
  %3 = alloca ptr, align 8
  %4 = alloca ptr, align 8
  %5 = alloca ptr, align 8
  %6 = alloca ptr, align 8
  %7 = alloca i32, align 4
  %8 = alloca i32, align 4
  store ptr %0, ptr %3, align 8
  store ptr %1, ptr %4, align 8
  call void @llvm.lifetime.start.p0(i64 8, ptr %5) #6
  call void @llvm.lifetime.start.p0(i64 8, ptr %6) #6
  call void @llvm.lifetime.start.p0(i64 4, ptr %7) #6
  call void @llvm.lifetime.start.p0(i64 4, ptr %8) #6
  %9 = load ptr, ptr %4, align 8
  %10 = call i32 @exprType(ptr noundef %9)
  store i32 %10, ptr %8, align 4
  %11 = load ptr, ptr %4, align 8
  %12 = getelementptr inbounds nuw %struct.GroupingFunc, ptr %11, i32 0, i32 4
  %13 = load i32, ptr %12, align 8
  store i32 %13, ptr %7, align 4
  br label %14

14:                                               ; preds = %21, %2
  %15 = load i32, ptr %7, align 4
  %16 = icmp ugt i32 %15, 0
  br i1 %16, label %17, label %24

17:                                               ; preds = %14
  %18 = load ptr, ptr %3, align 8
  %19 = getelementptr inbounds nuw %struct.PlannerInfo, ptr %18, i32 0, i32 4
  %20 = load ptr, ptr %19, align 8
  store ptr %20, ptr %3, align 8
  br label %21

21:                                               ; preds = %17
  %22 = load i32, ptr %7, align 4
  %23 = add i32 %22, -1
  store i32 %23, ptr %7, align 4
  br label %14, !llvm.loop !10

24:                                               ; preds = %14
  %25 = load ptr, ptr %4, align 8
  %26 = call ptr @copyObjectImpl(ptr noundef %25)
  store ptr %26, ptr %4, align 8
  %27 = load ptr, ptr %4, align 8
  %28 = load ptr, ptr %4, align 8
  %29 = getelementptr inbounds nuw %struct.GroupingFunc, ptr %28, i32 0, i32 4
  %30 = load i32, ptr %29, align 8
  %31 = sub i32 0, %30
  call void @IncrementVarSublevelsUp(ptr noundef %27, i32 noundef %31, i32 noundef 0)
  %32 = call ptr @newNode(i64 noundef 24, i32 noundef 325)
  store ptr %32, ptr %6, align 8
  %33 = load ptr, ptr %4, align 8
  %34 = load ptr, ptr %6, align 8
  %35 = getelementptr inbounds nuw %struct.PlannerParamItem, ptr %34, i32 0, i32 1
  store ptr %33, ptr %35, align 8
  %36 = load ptr, ptr %3, align 8
  %37 = getelementptr inbounds nuw %struct.PlannerInfo, ptr %36, i32 0, i32 2
  %38 = load ptr, ptr %37, align 8
  %39 = getelementptr inbounds nuw %struct.PlannerGlobal, ptr %38, i32 0, i32 16
  %40 = load ptr, ptr %39, align 8
  %41 = call i32 @list_length(ptr noundef %40)
  %42 = load ptr, ptr %6, align 8
  %43 = getelementptr inbounds nuw %struct.PlannerParamItem, ptr %42, i32 0, i32 2
  store i32 %41, ptr %43, align 8
  %44 = load ptr, ptr %3, align 8
  %45 = getelementptr inbounds nuw %struct.PlannerInfo, ptr %44, i32 0, i32 2
  %46 = load ptr, ptr %45, align 8
  %47 = getelementptr inbounds nuw %struct.PlannerGlobal, ptr %46, i32 0, i32 16
  %48 = load ptr, ptr %47, align 8
  %49 = load i32, ptr %8, align 4
  %50 = call ptr @lappend_oid(ptr noundef %48, i32 noundef %49)
  %51 = load ptr, ptr %3, align 8
  %52 = getelementptr inbounds nuw %struct.PlannerInfo, ptr %51, i32 0, i32 2
  %53 = load ptr, ptr %52, align 8
  %54 = getelementptr inbounds nuw %struct.PlannerGlobal, ptr %53, i32 0, i32 16
  store ptr %50, ptr %54, align 8
  %55 = load ptr, ptr %3, align 8
  %56 = getelementptr inbounds nuw %struct.PlannerInfo, ptr %55, i32 0, i32 5
  %57 = load ptr, ptr %56, align 8
  %58 = load ptr, ptr %6, align 8
  %59 = call ptr @lappend(ptr noundef %57, ptr noundef %58)
  %60 = load ptr, ptr %3, align 8
  %61 = getelementptr inbounds nuw %struct.PlannerInfo, ptr %60, i32 0, i32 5
  store ptr %59, ptr %61, align 8
  %62 = call ptr @newNode(i64 noundef 28, i32 noundef 8)
  store ptr %62, ptr %5, align 8
  %63 = load ptr, ptr %5, align 8
  %64 = getelementptr inbounds nuw %struct.Param, ptr %63, i32 0, i32 1
  store i32 1, ptr %64, align 4
  %65 = load ptr, ptr %6, align 8
  %66 = getelementptr inbounds nuw %struct.PlannerParamItem, ptr %65, i32 0, i32 2
  %67 = load i32, ptr %66, align 8
  %68 = load ptr, ptr %5, align 8
  %69 = getelementptr inbounds nuw %struct.Param, ptr %68, i32 0, i32 2
  store i32 %67, ptr %69, align 4
  %70 = load i32, ptr %8, align 4
  %71 = load ptr, ptr %5, align 8
  %72 = getelementptr inbounds nuw %struct.Param, ptr %71, i32 0, i32 3
  store i32 %70, ptr %72, align 4
  %73 = load ptr, ptr %5, align 8
  %74 = getelementptr inbounds nuw %struct.Param, ptr %73, i32 0, i32 4
  store i32 -1, ptr %74, align 4
  %75 = load ptr, ptr %5, align 8
  %76 = getelementptr inbounds nuw %struct.Param, ptr %75, i32 0, i32 5
  store i32 0, ptr %76, align 4
  %77 = load ptr, ptr %4, align 8
  %78 = getelementptr inbounds nuw %struct.GroupingFunc, ptr %77, i32 0, i32 5
  %79 = load i32, ptr %78, align 4
  %80 = load ptr, ptr %5, align 8
  %81 = getelementptr inbounds nuw %struct.Param, ptr %80, i32 0, i32 6
  store i32 %79, ptr %81, align 4
  %82 = load ptr, ptr %5, align 8
  call void @llvm.lifetime.end.p0(i64 4, ptr %8) #6
  call void @llvm.lifetime.end.p0(i64 4, ptr %7) #6
  call void @llvm.lifetime.end.p0(i64 8, ptr %6) #6
  call void @llvm.lifetime.end.p0(i64 8, ptr %5) #6
  ret ptr %82
}