; Function Attrs: nounwind uwtable
define dso_local noundef ptr @replace_outer_grouping(ptr noundef captures(none) %0, ptr noundef %1) local_unnamed_addr #0 {
  %3 = tail call i32 @exprType(ptr noundef %1) #4
  %4 = getelementptr inbounds nuw i8, ptr %1, i64 32
  %5 = load i32, ptr %4, align 8
  %.not28 = icmp eq i32 %5, 0
  br i1 %.not28, label %._crit_edge, label %.lr.ph

.lr.ph:                                           ; preds = %2, %.lr.ph
  %.030 = phi ptr [ %7, %.lr.ph ], [ %0, %2 ]
  %.02729 = phi i32 [ %8, %.lr.ph ], [ %5, %2 ]
  %6 = getelementptr inbounds nuw i8, ptr %.030, i64 32
  %7 = load ptr, ptr %6, align 8
  %8 = add i32 %.02729, -1
  %.not = icmp eq i32 %8, 0
  br i1 %.not, label %._crit_edge, label %.lr.ph, !llvm.loop !8

._crit_edge:                                      ; preds = %.lr.ph, %2
  %.0.lcssa = phi ptr [ %0, %2 ], [ %7, %.lr.ph ]
  %9 = tail call ptr @copyObjectImpl(ptr noundef %1) #4
  %10 = getelementptr inbounds nuw i8, ptr %9, i64 32
  %11 = load i32, ptr %10, align 8
  %12 = sub i32 0, %11
  tail call void @IncrementVarSublevelsUp(ptr noundef %9, i32 noundef %12, i32 noundef 0) #4
  %13 = tail call noundef ptr @palloc0(i64 noundef 24) #4
  store i32 325, ptr %13, align 4
  %14 = getelementptr inbounds nuw i8, ptr %13, i64 8
  store ptr %9, ptr %14, align 8
  %15 = getelementptr inbounds nuw i8, ptr %.0.lcssa, i64 16
  %16 = load ptr, ptr %15, align 8
  %17 = getelementptr inbounds nuw i8, ptr %16, i64 128
  %18 = load ptr, ptr %17, align 8
  %.not.i = icmp eq ptr %18, null
  br i1 %.not.i, label %list_length.exit, label %19

19:                                               ; preds = %._crit_edge
  %20 = getelementptr inbounds nuw i8, ptr %18, i64 4
  %21 = load i32, ptr %20, align 4
  br label %list_length.exit

list_length.exit:                                 ; preds = %._crit_edge, %19
  %22 = phi i32 [ %21, %19 ], [ 0, %._crit_edge ]
  %23 = getelementptr inbounds nuw i8, ptr %13, i64 16
  store i32 %22, ptr %23, align 8
  %24 = load ptr, ptr %15, align 8
  %25 = getelementptr inbounds nuw i8, ptr %24, i64 128
  %26 = load ptr, ptr %25, align 8
  %27 = tail call ptr @lappend_oid(ptr noundef %26, i32 noundef %3) #4
  %28 = load ptr, ptr %15, align 8
  %29 = getelementptr inbounds nuw i8, ptr %28, i64 128
  store ptr %27, ptr %29, align 8
  %30 = getelementptr inbounds nuw i8, ptr %.0.lcssa, i64 40
  %31 = load ptr, ptr %30, align 8
  %32 = tail call ptr @lappend(ptr noundef %31, ptr noundef nonnull %13) #4
  store ptr %32, ptr %30, align 8
  %33 = tail call noundef ptr @palloc0(i64 noundef 28) #4
  store i32 8, ptr %33, align 4
  %34 = getelementptr inbounds nuw i8, ptr %33, i64 4
  store i32 1, ptr %34, align 4
  %35 = load i32, ptr %23, align 8
  %36 = getelementptr inbounds nuw i8, ptr %33, i64 8
  store i32 %35, ptr %36, align 4
  %37 = getelementptr inbounds nuw i8, ptr %33, i64 12
  store i32 %3, ptr %37, align 4
  %38 = getelementptr inbounds nuw i8, ptr %33, i64 16
  store i32 -1, ptr %38, align 4
  %39 = getelementptr inbounds nuw i8, ptr %33, i64 20
  store i32 0, ptr %39, align 4
  %40 = getelementptr inbounds nuw i8, ptr %9, i64 36
  %41 = load i32, ptr %40, align 4
  %42 = getelementptr inbounds nuw i8, ptr %33, i64 24
  store i32 %41, ptr %42, align 4
  ret ptr %33
}